target datalayout = "e-m:e-p270:32:32-p271:32:32-p272:64:64-i64:64-i128:128-f80:128-n8:16:32:64-S128"
target triple = "x86_64-pc-linux-gnu"

%"class.std::__cxx11::basic_string" = type { %"struct.std::__cxx11::basic_string<char>::_Alloc_hider", i64, %union.anon }
%"struct.std::__cxx11::basic_string<char>::_Alloc_hider" = type { ptr }
%union.anon = type { i64, [8 x i8] }
%"class.std::_Function_base" = type { %"union.std::_Any_data", ptr }
%"union.std::_Any_data" = type { %"union.std::_Nocopy_types" }
%"union.std::_Nocopy_types" = type { { i64, i64 } }
%"class.(anonymous namespace)::SourceLineSynchronizer" = type { %"class.std::function.395", ptr, i32, i32 }
%"class.std::function.395" = type { %"class.std::_Function_base", ptr }
%class.anon.400 = type { ptr, ptr, ptr }

@.str.83 = private unnamed_addr constant [7 x i8] c"#line \00", align 1

; Function Attrs: mustprogress nounwind uwtable
define internal void @_ZN12_GLOBAL__N_122SourceLineSynchronizer10setLineNumEi(ptr noundef nonnull align 8 dereferenceable(48) %0, i32 noundef %1) #4 align 2 {
  %3 = alloca ptr, align 8
  %4 = alloca i32, align 4
  store ptr %0, ptr %3, align 8
  store i32 %1, ptr %4, align 4
  %5 = load ptr, ptr %3, align 8
  %6 = load i32, ptr %4, align 4
  %7 = getelementptr inbounds %"class.(anonymous namespace)::SourceLineSynchronizer", ptr %5, i32 0, i32 3
  store i32 %6, ptr %7, align 4
  ret void
}

; Function Attrs: mustprogress nounwind uwtable
define internal void @_ZZN12_GLOBAL__N_115DoPreprocessingclERN7glslang17TParseContextBaseERNS1_10TPpContextERNS1_13TInputScannerEbRNS1_12TSymbolTableERNS1_13TIntermediateE20EShOptimizationLevel11EShMessagesENKUliibiPKcE_clEiibiSF_(ptr noundef nonnull align 8 dereferenceable(24) %0, i32 noundef %1, i32 noundef %2, i1 noundef zeroext %3, i32 noundef %4, ptr noundef %5) #4 align 2 {
  %7 = alloca ptr, align 8
  %8 = alloca i32, align 4
  %9 = alloca i32, align 4
  %10 = alloca i8, align 1
  %11 = alloca i32, align 4
  %12 = alloca ptr, align 8
  %13 = alloca %"class.std::__cxx11::basic_string", align 8
  %14 = alloca %"class.std::__cxx11::basic_string", align 8
  store ptr %0, ptr %7, align 8
  store i32 %1, ptr %8, align 4
  store i32 %2, ptr %9, align 4
  %15 = zext i1 %3 to i8
  store i8 %15, ptr %10, align 1
  store i32 %4, ptr %11, align 4
  store ptr %5, ptr %12, align 8
  %16 = load ptr, ptr %7, align 8
  %17 = getelementptr inbounds %class.anon.400, ptr %16, i32 0, i32 0
  %18 = load ptr, ptr %17, align 8
  %19 = load i32, ptr %8, align 4
  %20 = call noundef zeroext i1 @_ZN12_GLOBAL__N_122SourceLineSynchronizer10syncToLineEi(ptr noundef nonnull align 8 dereferenceable(48) %18, i32 noundef %19)
  %21 = getelementptr inbounds %class.anon.400, ptr %16, i32 0, i32 1
  %22 = load ptr, ptr %21, align 8
  %23 = call noundef nonnull align 8 dereferenceable(32) ptr @_ZNSt7__cxx1112basic_stringIcSt11char_traitsIcESaIcEEpLEPKc(ptr noundef nonnull align 8 dereferenceable(32) %22, ptr noundef @.str.83)
  %24 = load i32, ptr %9, align 4
  call void @_ZNSt7__cxx119to_stringEi(ptr dead_on_unwind writable sret(%"class.std::__cxx11::basic_string") align 8 %13, i32 noundef %24) #3
  %25 = getelementptr inbounds %class.anon.400, ptr %16, i32 0, i32 1
  %26 = load ptr, ptr %25, align 8
  %27 = call noundef nonnull align 8 dereferenceable(32) ptr @_ZNSt7__cxx1112basic_stringIcSt11char_traitsIcESaIcEEpLERKS4_(ptr noundef nonnull align 8 dereferenceable(32) %26, ptr noundef nonnull align 8 dereferenceable(32) %13)
  call void @_ZNSt7__cxx1112basic_stringIcSt11char_traitsIcESaIcEED1Ev(ptr noundef nonnull align 8 dereferenceable(32) %13) #3
  %28 = load i8, ptr %10, align 1
  %29 = trunc i8 %28 to i1
  br i1 %29, label %30, label %53

30:                                               ; preds = %6
  %31 = getelementptr inbounds %class.anon.400, ptr %16, i32 0, i32 1
  %32 = load ptr, ptr %31, align 8
  %33 = call noundef nonnull align 8 dereferenceable(32) ptr @_ZNSt7__cxx1112basic_stringIcSt11char_traitsIcESaIcEEpLEc(ptr noundef nonnull align 8 dereferenceable(32) %32, i8 noundef signext 32)
  %34 = load ptr, ptr %12, align 8
  %35 = icmp ne ptr %34, null
  br i1 %35, label %36, label %47

36:                                               ; preds = %30
  %37 = getelementptr inbounds %class.anon.400, ptr %16, i32 0, i32 1
  %38 = load ptr, ptr %37, align 8
  %39 = call noundef nonnull align 8 dereferenceable(32) ptr @_ZNSt7__cxx1112basic_stringIcSt11char_traitsIcESaIcEEpLEc(ptr noundef nonnull align 8 dereferenceable(32) %38, i8 noundef signext 34)
  %40 = load ptr, ptr %12, align 8
  %41 = getelementptr inbounds %class.anon.400, ptr %16, i32 0, i32 1
  %42 = load ptr, ptr %41, align 8
  %43 = call noundef nonnull align 8 dereferenceable(32) ptr @_ZNSt7__cxx1112basic_stringIcSt11char_traitsIcESaIcEEpLEPKc(ptr noundef nonnull align 8 dereferenceable(32) %42, ptr noundef %40)
  %44 = getelementptr inbounds %class.anon.400, ptr %16, i32 0, i32 1
  %45 = load ptr, ptr %44, align 8
  %46 = call noundef nonnull align 8 dereferenceable(32) ptr @_ZNSt7__cxx1112basic_stringIcSt11char_traitsIcESaIcEEpLEc(ptr noundef nonnull align 8 dereferenceable(32) %45, i8 noundef signext 34)
  br label %52

47:                                               ; preds = %30
  %48 = load i32, ptr %11, align 4
  call void @_ZNSt7__cxx119to_stringEi(ptr dead_on_unwind writable sret(%"class.std::__cxx11::basic_string") align 8 %14, i32 noundef %48) #3
  %49 = getelementptr inbounds %class.anon.400, ptr %16, i32 0, i32 1
  %50 = load ptr, ptr %49, align 8
  %51 = call noundef nonnull align 8 dereferenceable(32) ptr @_ZNSt7__cxx1112basic_stringIcSt11char_traitsIcESaIcEEpLERKS4_(ptr noundef nonnull align 8 dereferenceable(32) %50, ptr noundef nonnull align 8 dereferenceable(32) %14)
  call void @_ZNSt7__cxx1112basic_stringIcSt11char_traitsIcESaIcEED1Ev(ptr noundef nonnull align 8 dereferenceable(32) %14) #3
  br label %52

52:                                               ; preds = %47, %36
  br label %53

53:                                               ; preds = %52, %6
  %54 = getelementptr inbounds %class.anon.400, ptr %16, i32 0, i32 2
  %55 = load ptr, ptr %54, align 8
  %56 = load ptr, ptr %55, align 8
  %57 = getelementptr inbounds ptr, ptr %56, i64 55
  %58 = load ptr, ptr %57, align 8
  %59 = call noundef zeroext i1 %58(ptr noundef nonnull align 8 dereferenceable(1280) %55)
  br i1 %59, label %60, label %63

60:                                               ; preds = %53
  %61 = load i32, ptr %9, align 4
  %62 = sub nsw i32 %61, 1
  store i32 %62, ptr %9, align 4
  br label %63

63:                                               ; preds = %60, %53
  %64 = getelementptr inbounds %class.anon.400, ptr %16, i32 0, i32 1
  %65 = load ptr, ptr %64, align 8
  %66 = call noundef nonnull align 8 dereferenceable(32) ptr @_ZNSt7__cxx1112basic_stringIcSt11char_traitsIcESaIcEEpLEc(ptr noundef nonnull align 8 dereferenceable(32) %65, i8 noundef signext 10)
  %67 = getelementptr inbounds %class.anon.400, ptr %16, i32 0, i32 0
  %68 = load ptr, ptr %67, align 8
  %69 = load i32, ptr %9, align 4
  %70 = add nsw i32 %69, 1
  call void @_ZN12_GLOBAL__N_122SourceLineSynchronizer10setLineNumEi(ptr noundef nonnull align 8 dereferenceable(48) %68, i32 noundef %70)
  ret void
}

; Function Attrs: mustprogress nounwind uwtable
define linkonce_odr noundef ptr @_ZNKSt9_Any_data9_M_accessEv(ptr noundef nonnull align 8 dereferenceable(16) %0) #4 comdat align 2 {
  %2 = alloca ptr, align 8
  store ptr %0, ptr %2, align 8
  %3 = load ptr, ptr %2, align 8
  %4 = getelementptr inbounds [16 x i8], ptr %3, i64 0, i64 0
  ret ptr %4
}

; Function Attrs: mustprogress nounwind uwtable
define internal void @_ZSt13__invoke_implIvRZN12_GLOBAL__N_115DoPreprocessingclERN7glslang17TParseContextBaseERNS2_10TPpContextERNS2_13TInputScannerEbRNS2_12TSymbolTableERNS2_13TIntermediateE20EShOptimizationLevel11EShMessagesEUliibiPKcE_JiibiSG_EET_St14__invoke_otherOT0_DpOT1_(ptr noundef nonnull align 8 dereferenceable(24) %0, ptr noundef nonnull align 4 dereferenceable(4) %1, ptr noundef nonnull align 4 dereferenceable(4) %2, ptr noundef nonnull align 1 dereferenceable(1) %3, ptr noundef nonnull align 4 dereferenceable(4) %4, ptr noundef nonnull align 8 dereferenceable(8) %5) #4 {
  %7 = alloca ptr, align 8
  %8 = alloca ptr, align 8
  %9 = alloca ptr, align 8
  %10 = alloca ptr, align 8
  %11 = alloca ptr, align 8
  %12 = alloca ptr, align 8
  store ptr %0, ptr %7, align 8
  store ptr %1, ptr %8, align 8
  store ptr %2, ptr %9, align 8
  store ptr %3, ptr %10, align 8
  store ptr %4, ptr %11, align 8
  store ptr %5, ptr %12, align 8
  %13 = load ptr, ptr %7, align 8
  %14 = load ptr, ptr %8, align 8
  %15 = load i32, ptr %14, align 4
  %16 = load ptr, ptr %9, align 8
  %17 = load i32, ptr %16, align 4
  %18 = load ptr, ptr %10, align 8
  %19 = load i8, ptr %18, align 1
  %20 = trunc i8 %19 to i1
  %21 = load ptr, ptr %11, align 8
  %22 = load i32, ptr %21, align 4
  %23 = load ptr, ptr %12, align 8
  %24 = load ptr, ptr %23, align 8
  call void @_ZZN12_GLOBAL__N_115DoPreprocessingclERN7glslang17TParseContextBaseERNS1_10TPpContextERNS1_13TInputScannerEbRNS1_12TSymbolTableERNS1_13TIntermediateE20EShOptimizationLevel11EShMessagesENKUliibiPKcE_clEiibiSF_(ptr noundef nonnull align 8 dereferenceable(24) %13, i32 noundef %15, i32 noundef %17, i1 noundef zeroext %20, i32 noundef %22, ptr noundef %24)
  ret void
}

; Function Attrs: mustprogress nounwind uwtable
define internal noundef nonnull align 8 dereferenceable(8) ptr @_ZNKSt9_Any_data9_M_accessIPZN12_GLOBAL__N_115DoPreprocessingclERN7glslang17TParseContextBaseERNS3_10TPpContextERNS3_13TInputScannerEbRNS3_12TSymbolTableERNS3_13TIntermediateE20EShOptimizationLevel11EShMessagesEUliibiPKcE_EERKT_v(ptr noundef nonnull align 8 dereferenceable(16) %0) #4 align 2 {
  %2 = alloca ptr, align 8
  store ptr %0, ptr %2, align 8
  %3 = load ptr, ptr %2, align 8
  %4 = call noundef ptr @_ZNKSt9_Any_data9_M_accessEv(ptr noundef nonnull align 8 dereferenceable(16) %3) #3
  ret ptr %4
}

; Function Attrs: mustprogress nounwind uwtable
define internal void @_ZSt10__invoke_rIvRZN12_GLOBAL__N_115DoPreprocessingclERN7glslang17TParseContextBaseERNS2_10TPpContextERNS2_13TInputScannerEbRNS2_12TSymbolTableERNS2_13TIntermediateE20EShOptimizationLevel11EShMessagesEUliibiPKcE_JiibiSG_EENSt9enable_ifIX16is_invocable_r_vIT_T0_DpT1_EESK_E4typeEOSL_DpOSM_(ptr noundef nonnull align 8 dereferenceable(24) %0, ptr noundef nonnull align 4 dereferenceable(4) %1, ptr noundef nonnull align 4 dereferenceable(4) %2, ptr noundef nonnull align 1 dereferenceable(1) %3, ptr noundef nonnull align 4 dereferenceable(4) %4, ptr noundef nonnull align 8 dereferenceable(8) %5) #4 {
  %7 = alloca ptr, align 8
  %8 = alloca ptr, align 8
  %9 = alloca ptr, align 8
  %10 = alloca ptr, align 8
  %11 = alloca ptr, align 8
  %12 = alloca ptr, align 8
  store ptr %0, ptr %7, align 8
  store ptr %1, ptr %8, align 8
  store ptr %2, ptr %9, align 8
  store ptr %3, ptr %10, align 8
  store ptr %4, ptr %11, align 8
  store ptr %5, ptr %12, align 8
  %13 = load ptr, ptr %7, align 8
  %14 = load ptr, ptr %8, align 8
  %15 = load ptr, ptr %9, align 8
  %16 = load ptr, ptr %10, align 8
  %17 = load ptr, ptr %11, align 8
  %18 = load ptr, ptr %12, align 8
  call void @_ZSt13__invoke_implIvRZN12_GLOBAL__N_115DoPreprocessingclERN7glslang17TParseContextBaseERNS2_10TPpContextERNS2_13TInputScannerEbRNS2_12TSymbolTableERNS2_13TIntermediateE20EShOptimizationLevel11EShMessagesEUliibiPKcE_JiibiSG_EET_St14__invoke_otherOT0_DpOT1_(ptr noundef nonnull align 8 dereferenceable(24) %13, ptr noundef nonnull align 4 dereferenceable(4) %14, ptr noundef nonnull align 4 dereferenceable(4) %15, ptr noundef nonnull align 1 dereferenceable(1) %16, ptr noundef nonnull align 4 dereferenceable(4) %17, ptr noundef nonnull align 8 dereferenceable(8) %18)
  ret void
}

; Function Attrs: mustprogress nounwind uwtable
define internal noundef ptr @_ZNSt14_Function_base13_Base_managerIZN12_GLOBAL__N_115DoPreprocessingclERN7glslang17TParseContextBaseERNS3_10TPpContextERNS3_13TInputScannerEbRNS3_12TSymbolTableERNS3_13TIntermediateE20EShOptimizationLevel11EShMessagesEUliibiPKcE_E14_M_get_pointerERKSt9_Any_data(ptr noundef nonnull align 8 dereferenceable(16) %0) #4 align 2 {
  %2 = alloca ptr, align 8
  store ptr %0, ptr %2, align 8
  %3 = load ptr, ptr %2, align 8
  %4 = call noundef nonnull align 8 dereferenceable(8) ptr @_ZNKSt9_Any_data9_M_accessIPZN12_GLOBAL__N_115DoPreprocessingclERN7glslang17TParseContextBaseERNS3_10TPpContextERNS3_13TInputScannerEbRNS3_12TSymbolTableERNS3_13TIntermediateE20EShOptimizationLevel11EShMessagesEUliibiPKcE_EERKT_v(ptr noundef nonnull align 8 dereferenceable(16) %3) #3
  %5 = load ptr, ptr %4, align 8
  ret ptr %5
}

; Function Attrs: mustprogress nounwind uwtable
define internal void @_ZNSt17_Function_handlerIFviibiPKcEZN12_GLOBAL__N_115DoPreprocessingclERN7glslang17TParseContextBaseERNS5_10TPpContextERNS5_13TInputScannerEbRNS5_12TSymbolTableERNS5_13TIntermediateE20EShOptimizationLevel11EShMessagesEUliibiS1_E_E9_M_invokeERKSt9_Any_dataOiSN_ObSN_OS1_(ptr noundef nonnull align 8 dereferenceable(16) %0, ptr noundef nonnull align 4 dereferenceable(4) %1, ptr noundef nonnull align 4 dereferenceable(4) %2, ptr noundef nonnull align 1 dereferenceable(1) %3, ptr noundef nonnull align 4 dereferenceable(4) %4, ptr noundef nonnull align 8 dereferenceable(8) %5) #4 align 2 {
  %7 = alloca ptr, align 8
  %8 = alloca ptr, align 8
  %9 = alloca ptr, align 8
  %10 = alloca ptr, align 8
  %11 = alloca ptr, align 8
  %12 = alloca ptr, align 8
  store ptr %0, ptr %7, align 8
  store ptr %1, ptr %8, align 8
  store ptr %2, ptr %9, align 8
  store ptr %3, ptr %10, align 8
  store ptr %4, ptr %11, align 8
  store ptr %5, ptr %12, align 8
  %13 = load ptr, ptr %7, align 8
  %14 = call noundef ptr @_ZNSt14_Function_base13_Base_managerIZN12_GLOBAL__N_115DoPreprocessingclERN7glslang17TParseContextBaseERNS3_10TPpContextERNS3_13TInputScannerEbRNS3_12TSymbolTableERNS3_13TIntermediateE20EShOptimizationLevel11EShMessagesEUliibiPKcE_E14_M_get_pointerERKSt9_Any_data(ptr noundef nonnull align 8 dereferenceable(16) %13) #3
  %15 = load ptr, ptr %8, align 8
  %16 = load ptr, ptr %9, align 8
  %17 = load ptr, ptr %10, align 8
  %18 = load ptr, ptr %11, align 8
  %19 = load ptr, ptr %12, align 8
  call void @_ZSt10__invoke_rIvRZN12_GLOBAL__N_115DoPreprocessingclERN7glslang17TParseContextBaseERNS2_10TPpContextERNS2_13TInputScannerEbRNS2_12TSymbolTableERNS2_13TIntermediateE20EShOptimizationLevel11EShMessagesEUliibiPKcE_JiibiSG_EENSt9enable_ifIX16is_invocable_r_vIT_T0_DpT1_EESK_E4typeEOSL_DpOSM_(ptr noundef nonnull align 8 dereferenceable(24) %14, ptr noundef nonnull align 4 dereferenceable(4) %15, ptr noundef nonnull align 4 dereferenceable(4) %16, ptr noundef nonnull align 1 dereferenceable(1) %17, ptr noundef nonnull align 4 dereferenceable(4) %18, ptr noundef nonnull align 8 dereferenceable(8) %19)
  ret void
}