; Function Attrs: mustprogress nounwind uwtable
define internal void @_ZNSt17_Function_handlerIFviibiPKcEZN12_GLOBAL__N_115DoPreprocessingclERN7glslang17TParseContextBaseERNS5_10TPpContextERNS5_13TInputScannerEbRNS5_12TSymbolTableERNS5_13TIntermediateE20EShOptimizationLevel11EShMessagesEUliibiS1_E_E9_M_invokeERKSt9_Any_dataOiSN_ObSN_OS1_(ptr noundef nonnull readonly align 8 captures(none) dereferenceable(16) %0, ptr noundef nonnull readonly align 4 captures(none) dereferenceable(4) %1, ptr noundef nonnull readonly align 4 captures(none) dereferenceable(4) %2, ptr noundef nonnull readonly align 1 captures(none) dereferenceable(1) %3, ptr noundef nonnull readonly align 4 captures(none) dereferenceable(4) %4, ptr noundef nonnull readonly align 8 captures(none) dereferenceable(8) %5) #3 align 2 {
  %7 = alloca %"class.std::__cxx11::basic_string", align 8
  %8 = alloca %"class.std::__cxx11::basic_string", align 8
  %.val = load ptr, ptr %0, align 8
  %.val6 = load i32, ptr %1, align 4
  %.val7 = load i32, ptr %2, align 4
  %.val8 = load i8, ptr %3, align 1
  %.val9 = load i32, ptr %4, align 4
  %.val10 = load ptr, ptr %5, align 8
  %9 = trunc i8 %.val8 to i1
  call void @llvm.lifetime.start.p0(i64 32, ptr nonnull %7)
  call void @llvm.lifetime.start.p0(i64 32, ptr nonnull %8)
  %10 = load ptr, ptr %.val, align 8
  %11 = tail call fastcc noundef zeroext i1 @_ZN12_GLOBAL__N_122SourceLineSynchronizer10syncToLineEi(ptr noundef nonnull align 8 dereferenceable(48) %10, i32 noundef %.val6)
  %12 = getelementptr inbounds nuw i8, ptr %.val, i64 8
  %13 = load ptr, ptr %12, align 8
  %14 = tail call noundef nonnull align 8 dereferenceable(32) ptr @_ZNSt7__cxx1112basic_stringIcSt11char_traitsIcESaIcEEpLEPKc(ptr noundef nonnull align 8 dereferenceable(32) %13, ptr noundef nonnull @.str.83) #24
  call void @_ZNSt7__cxx119to_stringEi(ptr dead_on_unwind nonnull writable sret(%"class.std::__cxx11::basic_string") align 8 %7, i32 noundef %.val7) #24
  %15 = load ptr, ptr %12, align 8
  %16 = call noundef nonnull align 8 dereferenceable(32) ptr @_ZNSt7__cxx1112basic_stringIcSt11char_traitsIcESaIcEEpLERKS4_(ptr noundef nonnull align 8 dereferenceable(32) %15, ptr noundef nonnull align 8 dereferenceable(32) %7) #24
  call void @_ZNSt7__cxx1112basic_stringIcSt11char_traitsIcESaIcEED1Ev(ptr noundef nonnull align 8 dereferenceable(32) %7) #24
  br i1 %9, label %17, label %_ZSt10__invoke_rIvRZN12_GLOBAL__N_115DoPreprocessingclERN7glslang17TParseContextBaseERNS2_10TPpContextERNS2_13TInputScannerEbRNS2_12TSymbolTableERNS2_13TIntermediateE20EShOptimizationLevel11EShMessagesEUliibiPKcE_JiibiSG_EENSt9enable_ifIX16is_invocable_r_vIT_T0_DpT1_EESK_E4typeEOSL_DpOSM_.exit

17:                                               ; preds = %6
  %18 = load ptr, ptr %12, align 8
  %19 = call noundef nonnull align 8 dereferenceable(32) ptr @_ZNSt7__cxx1112basic_stringIcSt11char_traitsIcESaIcEEpLEc(ptr noundef nonnull align 8 dereferenceable(32) %18, i8 noundef signext 32) #24
  %.not.i.i.i = icmp eq ptr %.val10, null
  br i1 %.not.i.i.i, label %27, label %20

20:                                               ; preds = %17
  %21 = load ptr, ptr %12, align 8
  %22 = call noundef nonnull align 8 dereferenceable(32) ptr @_ZNSt7__cxx1112basic_stringIcSt11char_traitsIcESaIcEEpLEc(ptr noundef nonnull align 8 dereferenceable(32) %21, i8 noundef signext 34) #24
  %23 = load ptr, ptr %12, align 8
  %24 = call noundef nonnull align 8 dereferenceable(32) ptr @_ZNSt7__cxx1112basic_stringIcSt11char_traitsIcESaIcEEpLEPKc(ptr noundef nonnull align 8 dereferenceable(32) %23, ptr noundef nonnull %.val10) #24
  %25 = load ptr, ptr %12, align 8
  %26 = call noundef nonnull align 8 dereferenceable(32) ptr @_ZNSt7__cxx1112basic_stringIcSt11char_traitsIcESaIcEEpLEc(ptr noundef nonnull align 8 dereferenceable(32) %25, i8 noundef signext 34) #24
  br label %_ZSt10__invoke_rIvRZN12_GLOBAL__N_115DoPreprocessingclERN7glslang17TParseContextBaseERNS2_10TPpContextERNS2_13TInputScannerEbRNS2_12TSymbolTableERNS2_13TIntermediateE20EShOptimizationLevel11EShMessagesEUliibiPKcE_JiibiSG_EENSt9enable_ifIX16is_invocable_r_vIT_T0_DpT1_EESK_E4typeEOSL_DpOSM_.exit

27:                                               ; preds = %17
  call void @_ZNSt7__cxx119to_stringEi(ptr dead_on_unwind nonnull writable sret(%"class.std::__cxx11::basic_string") align 8 %8, i32 noundef %.val9) #24
  %28 = load ptr, ptr %12, align 8
  %29 = call noundef nonnull align 8 dereferenceable(32) ptr @_ZNSt7__cxx1112basic_stringIcSt11char_traitsIcESaIcEEpLERKS4_(ptr noundef nonnull align 8 dereferenceable(32) %28, ptr noundef nonnull align 8 dereferenceable(32) %8) #24
  call void @_ZNSt7__cxx1112basic_stringIcSt11char_traitsIcESaIcEED1Ev(ptr noundef nonnull align 8 dereferenceable(32) %8) #24
  br label %_ZSt10__invoke_rIvRZN12_GLOBAL__N_115DoPreprocessingclERN7glslang17TParseContextBaseERNS2_10TPpContextERNS2_13TInputScannerEbRNS2_12TSymbolTableERNS2_13TIntermediateE20EShOptimizationLevel11EShMessagesEUliibiPKcE_JiibiSG_EENSt9enable_ifIX16is_invocable_r_vIT_T0_DpT1_EESK_E4typeEOSL_DpOSM_.exit

_ZSt10__invoke_rIvRZN12_GLOBAL__N_115DoPreprocessingclERN7glslang17TParseContextBaseERNS2_10TPpContextERNS2_13TInputScannerEbRNS2_12TSymbolTableERNS2_13TIntermediateE20EShOptimizationLevel11EShMessagesEUliibiPKcE_JiibiSG_EENSt9enable_ifIX16is_invocable_r_vIT_T0_DpT1_EESK_E4typeEOSL_DpOSM_.exit: ; preds = %6, %20, %27
  %30 = getelementptr inbounds nuw i8, ptr %.val, i64 16
  %31 = load ptr, ptr %30, align 8
  %32 = load ptr, ptr %31, align 8
  %33 = getelementptr inbounds nuw i8, ptr %32, i64 440
  %34 = load ptr, ptr %33, align 8
  %35 = call noundef zeroext i1 %34(ptr noundef nonnull align 8 dereferenceable(1280) %31) #24
  %36 = sext i1 %35 to i32
  %37 = load ptr, ptr %12, align 8
  %38 = call noundef nonnull align 8 dereferenceable(32) ptr @_ZNSt7__cxx1112basic_stringIcSt11char_traitsIcESaIcEEpLEc(ptr noundef nonnull align 8 dereferenceable(32) %37, i8 noundef signext 10) #24
  %39 = load ptr, ptr %.val, align 8
  %spec.select.i.i.i = add i32 %.val7, 1
  %40 = add i32 %spec.select.i.i.i, %36
  %41 = getelementptr inbounds nuw i8, ptr %39, i64 44
  store i32 %40, ptr %41, align 4
  call void @llvm.lifetime.end.p0(i64 32, ptr nonnull %7)
  call void @llvm.lifetime.end.p0(i64 32, ptr nonnull %8)
  ret void
}